; Function Attrs: nounwind uwtable
define void @_ZTv0_n24_N15colvarbias_metaD0Ev(ptr noundef %0) unnamed_addr #7 align 2 {
  %2 = load ptr, ptr %0, align 8
  %3 = getelementptr inbounds i8, ptr %2, i64 -24
  %4 = load i64, ptr %3, align 8
  %5 = getelementptr inbounds i8, ptr %0, i64 %4
  tail call void @_ZN15colvarbias_metaD2Ev(ptr noundef nonnull align 8 dereferenceable(880) %5, ptr noundef nonnull @_ZTT15colvarbias_meta) #22
  %6 = getelementptr inbounds i8, ptr %5, i64 1632
  tail call void @_ZN13colvarbias_tiD2Ev(ptr noundef nonnull align 8 dereferenceable(72) %6, ptr noundef nonnull getelementptr inbounds ([12 x ptr], ptr @_ZTT15colvarbias_meta, i64 0, i64 8)) #22
  %7 = getelementptr inbounds i8, ptr %5, i64 880
  tail call void @_ZN10colvarbiasD2Ev(ptr noundef nonnull align 8 dereferenceable(312) %7, ptr noundef nonnull getelementptr inbounds ([12 x ptr], ptr @_ZTT15colvarbias_meta, i64 0, i64 5)) #22
  %8 = getelementptr inbounds i8, ptr %5, i64 1512
  tail call void @_ZN10colvardepsD2Ev(ptr noundef nonnull align 8 dereferenceable(120) %8) #22
  %9 = getelementptr inbounds i8, ptr %5, i64 1192
  tail call void @_ZN11colvarparseD2Ev(ptr noundef nonnull align 8 dereferenceable(320) %9) #22
  tail call void @_ZdlPv(ptr noundef nonnull %5) #23
  ret void
}